; Function Attrs: mustprogress uwtable
define void @_ZNK6casadi6MXNode9get_nzrefERKNS_8SparsityERKSt6vectorIxSaIxEE(ptr dead_on_unwind noalias writable sret(%"class.casadi::MX") align 8 %0, ptr noundef nonnull align 8 dereferenceable(64) %1, ptr noundef nonnull align 8 dereferenceable(8) %2, ptr noundef nonnull align 8 dereferenceable(24) %3) unnamed_addr #3 align 2 personality ptr @__gxx_personality_v0 {
  %5 = alloca %"class.casadi::MX", align 8
  %6 = alloca %"class.casadi::MX", align 8
  %7 = getelementptr inbounds i8, ptr %1, i64 56
  %8 = tail call noundef zeroext i1 @_ZNK6casadi8Sparsity8is_denseEv(ptr noundef nonnull align 8 dereferenceable(8) %7)
  br i1 %8, label %9, label %19

9:                                                ; preds = %4
  %10 = load ptr, ptr %1, align 8
  %11 = getelementptr inbounds i8, ptr %10, i64 352
  %12 = load ptr, ptr %11, align 8
  %13 = tail call noundef nonnull align 8 dereferenceable(8) ptr %12(ptr noundef nonnull align 8 dereferenceable(64) %1, i64 noundef 0)
  %14 = tail call noundef i64 @_ZNK6casadi8Sparsity3nnzEv(ptr noundef nonnull align 8 dereferenceable(8) %13)
  %15 = tail call noundef zeroext i1 @_ZN6casadi8is_rangeERKSt6vectorIxSaIxEExxx(ptr noundef nonnull align 8 dereferenceable(24) %3, i64 noundef 0, i64 noundef %14, i64 noundef 1)
  br i1 %15, label %16, label %19

16:                                               ; preds = %9
  call void @_ZNK6casadi20SharedObjectInternal16shared_from_thisINS_2MXEEEKT_v(ptr dead_on_unwind nonnull writable sret(%"class.casadi::MX") align 8 %5, ptr noundef nonnull align 8 dereferenceable(24) %1)
  invoke void @_ZN6casadi2MX13sparsity_castERKS0_RKNS_8SparsityE(ptr dead_on_unwind writable sret(%"class.casadi::MX") align 8 %0, ptr noundef nonnull align 8 dereferenceable(8) %5, ptr noundef nonnull align 8 dereferenceable(8) %2)
          to label %_ZN6casadi13sparsity_castERKNS_2MXERKNS_8SparsityE.exit unwind label %17

17:                                               ; preds = %16
  %18 = landingpad { ptr, i32 }
          cleanup
  br label %22

19:                                               ; preds = %9, %4
  call void @_ZNK6casadi20SharedObjectInternal16shared_from_thisINS_2MXEEEKT_v(ptr dead_on_unwind nonnull writable sret(%"class.casadi::MX") align 8 %6, ptr noundef nonnull align 8 dereferenceable(24) %1)
  invoke void @_ZN6casadi11GetNonzeros6createERKNS_8SparsityERKNS_2MXERKSt6vectorIxSaIxEE(ptr dead_on_unwind writable sret(%"class.casadi::MX") align 8 %0, ptr noundef nonnull align 8 dereferenceable(8) %2, ptr noundef nonnull align 8 dereferenceable(8) %6, ptr noundef nonnull align 8 dereferenceable(24) %3)
          to label %_ZN6casadi13sparsity_castERKNS_2MXERKNS_8SparsityE.exit unwind label %20

20:                                               ; preds = %19
  %21 = landingpad { ptr, i32 }
          cleanup
  br label %22

_ZN6casadi13sparsity_castERKNS_2MXERKNS_8SparsityE.exit: ; preds = %19, %16
  %.sink = phi ptr [ %5, %16 ], [ %6, %19 ]
  call void @_ZN6casadi2MXD1Ev(ptr noundef nonnull align 8 dereferenceable(8) %.sink) #31
  ret void

22:                                               ; preds = %20, %17
  %.sink8 = phi ptr [ %6, %20 ], [ %5, %17 ]
  %.pn = phi { ptr, i32 } [ %21, %20 ], [ %18, %17 ]
  call void @_ZN6casadi2MXD1Ev(ptr noundef nonnull align 8 dereferenceable(8) %.sink8) #31
  resume { ptr, i32 } %.pn
}